target datalayout = "e-m:e-p270:32:32-p271:32:32-p272:64:64-i64:64-i128:128-f80:128-n8:16:32:64-S128"
target triple = "x86_64-pc-linux-gnu"

%struct.SUNMemoryHelper_ = type { ptr, ptr, ptr }
%struct.SUNMemoryHelper_Ops_ = type { ptr, ptr, ptr, ptr, ptr, ptr, ptr }

; Function Attrs: nounwind uwtable
define i32 @SUNMemoryHelper_Dealloc(ptr noundef %0, ptr noundef %1, ptr noundef %2) #0 {
  %4 = alloca ptr, align 8
  %5 = alloca ptr, align 8
  %6 = alloca ptr, align 8
  %7 = alloca i32, align 4
  %8 = alloca ptr, align 8
  store ptr %0, ptr %4, align 8, !tbaa !14
  store ptr %1, ptr %5, align 8, !tbaa !8
  store ptr %2, ptr %6, align 8, !tbaa !28
  call void @llvm.lifetime.start.p0(i64 4, ptr %7) #6
  store i32 0, ptr %7, align 4, !tbaa !29
  call void @llvm.lifetime.start.p0(i64 8, ptr %8) #6
  %9 = load ptr, ptr %4, align 8, !tbaa !14
  %10 = getelementptr inbounds nuw %struct.SUNMemoryHelper_, ptr %9, i32 0, i32 2
  %11 = load ptr, ptr %10, align 8, !tbaa !20
  store ptr %11, ptr %8, align 8, !tbaa !3
  %12 = load ptr, ptr %5, align 8, !tbaa !8
  %13 = icmp ne ptr %12, null
  br i1 %13, label %15, label %14

14:                                               ; preds = %3
  store i32 0, ptr %7, align 4, !tbaa !29
  br label %25

15:                                               ; preds = %3
  %16 = load ptr, ptr %4, align 8, !tbaa !14
  %17 = getelementptr inbounds nuw %struct.SUNMemoryHelper_, ptr %16, i32 0, i32 1
  %18 = load ptr, ptr %17, align 8, !tbaa !16
  %19 = getelementptr inbounds nuw %struct.SUNMemoryHelper_Ops_, ptr %18, i32 0, i32 1
  %20 = load ptr, ptr %19, align 8, !tbaa !23
  %21 = load ptr, ptr %4, align 8, !tbaa !14
  %22 = load ptr, ptr %5, align 8, !tbaa !8
  %23 = load ptr, ptr %6, align 8, !tbaa !28
  %24 = call i32 %20(ptr noundef %21, ptr noundef %22, ptr noundef %23)
  store i32 %24, ptr %7, align 4, !tbaa !29
  br label %25

25:                                               ; preds = %15, %14
  %26 = load i32, ptr %7, align 4, !tbaa !29
  call void @llvm.lifetime.end.p0(i64 8, ptr %8) #6
  call void @llvm.lifetime.end.p0(i64 4, ptr %7) #6
  ret i32 %26
}