; Function Attrs: nounwind uwtable
define i32 @SUNMemoryHelper_Dealloc(ptr noundef %0, ptr noundef %1, ptr noundef %2) local_unnamed_addr #6 {
  %.not = icmp eq ptr %1, null
  br i1 %.not, label %10, label %4

4:                                                ; preds = %3
  %5 = getelementptr inbounds nuw i8, ptr %0, i64 8
  %6 = load ptr, ptr %5, align 8, !tbaa !10
  %7 = getelementptr inbounds nuw i8, ptr %6, i64 8
  %8 = load ptr, ptr %7, align 8, !tbaa !18
  %9 = tail call i32 %8(ptr noundef %0, ptr noundef nonnull %1, ptr noundef %2) #10
  br label %10

10:                                               ; preds = %3, %4
  %.0 = phi i32 [ %9, %4 ], [ 0, %3 ]
  ret i32 %.0
}